; ModuleID = '61/1202.c'
source_filename = "61/1202.c"
target datalayout = "e-m:e-p270:32:32-p271:32:32-p272:64:64-i64:64-f80:128-n8:16:32:64-S128"
target triple = "x86_64-pc-linux-gnu"

@.str = private unnamed_addr constant [3 x i8] c"%d\00", align 1
@.str.1 = private unnamed_addr constant [4 x i8] c"%d\0A\00", align 1

; Function Attrs: noinline nounwind uwtable
define dso_local i32 @main() #0 {
  %1 = alloca i32, align 4
  %2 = alloca i32, align 4
  %3 = alloca [20 x i32], align 16
  %4 = alloca [20 x i32], align 16
  %5 = alloca i32, align 4
  %6 = alloca i32, align 4
  %7 = alloca i32, align 4
  store i32 0, i32* %1, align 4
  %8 = getelementptr inbounds [20 x i32], [20 x i32]* %4, i64 0, i64 0
  store i32 1, i32* %8, align 16
  %9 = getelementptr inbounds [20 x i32], [20 x i32]* %4, i64 0, i64 1
  store i32 1, i32* %9, align 4
  store i32 0, i32* %6, align 4
  %10 = call i32 (i8*, ...) @__isoc99_scanf(i8* getelementptr inbounds ([3 x i8], [3 x i8]* @.str, i64 0, i64 0), i32* %2)
  store i32 0, i32* %5, align 4
  store i32 0, i32* %5, align 4
  br label %11

11:                                               ; preds = %20, %0
  %12 = load i32, i32* %5, align 4
  %13 = load i32, i32* %2, align 4
  %14 = icmp slt i32 %12, %13
  br i1 %14, label %15, label %23

15:                                               ; preds = %11
  %16 = load i32, i32* %5, align 4
  %17 = sext i32 %16 to i64
  %18 = getelementptr inbounds [20 x i32], [20 x i32]* %3, i64 0, i64 %17
  %19 = call i32 (i8*, ...) @__isoc99_scanf(i8* getelementptr inbounds ([3 x i8], [3 x i8]* @.str, i64 0, i64 0), i32* %18)
  br label %20

20:                                               ; preds = %15
  %21 = load i32, i32* %5, align 4
  %22 = add nsw i32 %21, 1
  store i32 %22, i32* %5, align 4
  br label %11

23:                                               ; preds = %11
  store i32 0, i32* %5, align 4
  br label %24

24:                                               ; preds = %77, %23
  %25 = load i32, i32* %5, align 4
  %26 = load i32, i32* %2, align 4
  %27 = icmp slt i32 %25, %26
  br i1 %27, label %28, label %80

28:                                               ; preds = %24
  %29 = load i32, i32* %5, align 4
  %30 = sext i32 %29 to i64
  %31 = getelementptr inbounds [20 x i32], [20 x i32]* %3, i64 0, i64 %30
  %32 = load i32, i32* %31, align 4
  %33 = icmp eq i32 %32, 1
  br i1 %33, label %40, label %34

34:                                               ; preds = %28
  %35 = load i32, i32* %5, align 4
  %36 = sext i32 %35 to i64
  %37 = getelementptr inbounds [20 x i32], [20 x i32]* %3, i64 0, i64 %36
  %38 = load i32, i32* %37, align 4
  %39 = icmp eq i32 %38, 2
  br i1 %39, label %40, label %43

40:                                               ; preds = %34, %28
  store i32 1, i32* %6, align 4
  %41 = load i32, i32* %6, align 4
  %42 = call i32 (i8*, ...) @printf(i8* getelementptr inbounds ([4 x i8], [4 x i8]* @.str.1, i64 0, i64 0), i32 %41)
  br label %76

43:                                               ; preds = %34
  store i32 2, i32* %6, align 4
  store i32 2, i32* %6, align 4
  br label %44

44:                                               ; preds = %70, %43
  %45 = load i32, i32* %6, align 4
  %46 = load i32, i32* %5, align 4
  %47 = sext i32 %46 to i64
  %48 = getelementptr inbounds [20 x i32], [20 x i32]* %3, i64 0, i64 %47
  %49 = load i32, i32* %48, align 4
  %50 = icmp slt i32 %45, %49
  br i1 %50, label %51, label %73

51:                                               ; preds = %44
  %52 = load i32, i32* %6, align 4
  %53 = sub nsw i32 %52, 1
  %54 = sext i32 %53 to i64
  %55 = getelementptr inbounds [20 x i32], [20 x i32]* %4, i64 0, i64 %54
  %56 = load i32, i32* %55, align 4
  %57 = load i32, i32* %6, align 4
  %58 = sub nsw i32 %57, 2
  %59 = sext i32 %58 to i64
  %60 = getelementptr inbounds [20 x i32], [20 x i32]* %4, i64 0, i64 %59
  %61 = load i32, i32* %60, align 4
  %62 = add nsw i32 %56, %61
  %63 = load i32, i32* %6, align 4
  %64 = sext i32 %63 to i64
  %65 = getelementptr inbounds [20 x i32], [20 x i32]* %4, i64 0, i64 %64
  store i32 %62, i32* %65, align 4
  %66 = load i32, i32* %6, align 4
  %67 = sext i32 %66 to i64
  %68 = getelementptr inbounds [20 x i32], [20 x i32]* %4, i64 0, i64 %67
  %69 = load i32, i32* %68, align 4
  store i32 %69, i32* %7, align 4
  br label %70

70:                                               ; preds = %51
  %71 = load i32, i32* %6, align 4
  %72 = add nsw i32 %71, 1
  store i32 %72, i32* %6, align 4
  br label %44

73:                                               ; preds = %44
  %74 = load i32, i32* %7, align 4
  %75 = call i32 (i8*, ...) @printf(i8* getelementptr inbounds ([4 x i8], [4 x i8]* @.str.1, i64 0, i64 0), i32 %74)
  br label %76

76:                                               ; preds = %73, %40
  br label %77

77:                                               ; preds = %76
  %78 = load i32, i32* %5, align 4
  %79 = add nsw i32 %78, 1
  store i32 %79, i32* %5, align 4
  br label %24

80:                                               ; preds = %24
  ret i32 0
}

declare dso_local i32 @__isoc99_scanf(i8*, ...) #1

declare dso_local i32 @printf(i8*, ...) #1


!llvm.module.flags = !{!0}
!llvm.ident = !{!1}

!0 = !{i32 1, !"wchar_size", i32 4}
!1 = !{!"clang version 10.0.0-4ubuntu1 "}
